; Function Attrs: mustprogress nounwind uwtable
define dso_local noundef ptr @_ZN5clang7CodeGen15CodeGenFunction14GetAddrOfLabelEPKNS_9LabelDeclE(ptr noundef nonnull align 8 dereferenceable(6488) %0, ptr noundef %1) local_unnamed_addr #0 align 2 {
  %3 = alloca %"struct.clang::CodeGen::CodeGenFunction::JumpDest", align 8
  %4 = getelementptr inbounds nuw i8, ptr %0, i64 3200
  %5 = load ptr, ptr %4, align 8
  %.not = icmp eq ptr %5, null
  br i1 %.not, label %6, label %8

6:                                                ; preds = %2
  %7 = tail call noundef ptr @_ZN5clang7CodeGen15CodeGenFunction20GetIndirectGotoBlockEv(ptr noundef nonnull align 8 dereferenceable(6488) %0)
  br label %8

8:                                                ; preds = %6, %2
  call void @_ZN5clang7CodeGen15CodeGenFunction19getJumpDestForLabelEPKNS_9LabelDeclE(ptr dead_on_unwind nonnull writable sret(%"struct.clang::CodeGen::CodeGenFunction::JumpDest") align 8 %3, ptr noundef nonnull align 8 dereferenceable(6488) %0, ptr noundef %1) #21
  %9 = load ptr, ptr %3, align 8
  %10 = load ptr, ptr %4, align 8
  call void @_ZN4llvm14IndirectBrInst14addDestinationEPNS_10BasicBlockE(ptr noundef nonnull align 8 dereferenceable(76) %10, ptr noundef %9) #21
  %11 = getelementptr inbounds nuw i8, ptr %0, i64 1832
  %12 = load ptr, ptr %11, align 8
  %13 = call noundef ptr @_ZN4llvm12BlockAddress3getEPNS_8FunctionEPNS_10BasicBlockE(ptr noundef %12, ptr noundef %9) #21
  ret ptr %13
}